target datalayout = "e-m:e-p270:32:32-p271:32:32-p272:64:64-i64:64-i128:128-f80:128-n8:16:32:64-S128"
target triple = "x86_64-pc-linux-gnu"

%struct.luaL_Stream = type { ptr, ptr }

@.str.16 = private unnamed_addr constant [6 x i8] c"FILE*\00", align 1
@.str.17 = private unnamed_addr constant [29 x i8] c"attempt to use a closed file\00", align 1
@f_setvbuf.mode = internal constant [3 x i32] [i32 2, i32 0, i32 1], align 4
@f_setvbuf.modenames = internal constant [4 x ptr] [ptr @.str.49, ptr @.str.50, ptr @.str.51, ptr null], align 16

; Function Attrs: nounwind uwtable
define internal ptr @tofile(ptr noundef %0) #0 {
  %2 = alloca ptr, align 8
  %3 = alloca ptr, align 8
  store ptr %0, ptr %2, align 8, !tbaa !4
  call void @llvm.lifetime.start.p0(i64 8, ptr %3) #8
  %4 = load ptr, ptr %2, align 8, !tbaa !4
  %5 = call ptr @luaL_checkudata(ptr noundef %4, i32 noundef 1, ptr noundef @.str.16)
  store ptr %5, ptr %3, align 8, !tbaa !13
  %6 = load ptr, ptr %3, align 8, !tbaa !13
  %7 = getelementptr inbounds nuw %struct.luaL_Stream, ptr %6, i32 0, i32 1
  %8 = load ptr, ptr %7, align 8, !tbaa !17
  %9 = icmp eq ptr %8, null
  %10 = zext i1 %9 to i32
  %11 = icmp ne i32 %10, 0
  %12 = zext i1 %11 to i32
  %13 = sext i32 %12 to i64
  %14 = call i64 @llvm.expect.i64(i64 %13, i64 0)
  %15 = icmp ne i64 %14, 0
  br i1 %15, label %16, label %19

16:                                               ; preds = %1
  %17 = load ptr, ptr %2, align 8, !tbaa !4
  %18 = call i32 (ptr, ptr, ...) @luaL_error(ptr noundef %17, ptr noundef @.str.17)
  br label %19

19:                                               ; preds = %16, %1
  %20 = load ptr, ptr %3, align 8, !tbaa !13
  %21 = getelementptr inbounds nuw %struct.luaL_Stream, ptr %20, i32 0, i32 0
  %22 = load ptr, ptr %21, align 8, !tbaa !15
  call void @llvm.lifetime.end.p0(i64 8, ptr %3) #8
  ret ptr %22
}

; Function Attrs: nounwind uwtable
define internal i32 @f_setvbuf(ptr noundef %0) #0 {
  %2 = alloca ptr, align 8
  %3 = alloca ptr, align 8
  %4 = alloca i32, align 4
  %5 = alloca i64, align 8
  %6 = alloca i32, align 4
  store ptr %0, ptr %2, align 8, !tbaa !4
  call void @llvm.lifetime.start.p0(i64 8, ptr %3) #8
  %7 = load ptr, ptr %2, align 8, !tbaa !4
  %8 = call ptr @tofile(ptr noundef %7)
  store ptr %8, ptr %3, align 8, !tbaa !9
  call void @llvm.lifetime.start.p0(i64 4, ptr %4) #8
  %9 = load ptr, ptr %2, align 8, !tbaa !4
  %10 = call i32 @luaL_checkoption(ptr noundef %9, i32 noundef 2, ptr noundef null, ptr noundef @f_setvbuf.modenames)
  store i32 %10, ptr %4, align 4, !tbaa !18
  call void @llvm.lifetime.start.p0(i64 8, ptr %5) #8
  %11 = load ptr, ptr %2, align 8, !tbaa !4
  %12 = call i64 @luaL_optinteger(ptr noundef %11, i32 noundef 3, i64 noundef 1024)
  store i64 %12, ptr %5, align 8, !tbaa !44
  call void @llvm.lifetime.start.p0(i64 4, ptr %6) #8
  %13 = call ptr @__errno_location() #9
  store i32 0, ptr %13, align 4, !tbaa !18
  %14 = load ptr, ptr %3, align 8, !tbaa !9
  %15 = load i32, ptr %4, align 4, !tbaa !18
  %16 = sext i32 %15 to i64
  %17 = getelementptr inbounds [3 x i32], ptr @f_setvbuf.mode, i64 0, i64 %16
  %18 = load i32, ptr %17, align 4, !tbaa !18
  %19 = load i64, ptr %5, align 8, !tbaa !44
  %20 = call i32 @setvbuf(ptr noundef %14, ptr noundef null, i32 noundef %18, i64 noundef %19) #8
  store i32 %20, ptr %6, align 4, !tbaa !18
  %21 = load ptr, ptr %2, align 8, !tbaa !4
  %22 = load i32, ptr %6, align 4, !tbaa !18
  %23 = icmp eq i32 %22, 0
  %24 = zext i1 %23 to i32
  %25 = call i32 @luaL_fileresult(ptr noundef %21, i32 noundef %24, ptr noundef null)
  call void @llvm.lifetime.end.p0(i64 4, ptr %6) #8
  call void @llvm.lifetime.end.p0(i64 8, ptr %5) #8
  call void @llvm.lifetime.end.p0(i64 4, ptr %4) #8
  call void @llvm.lifetime.end.p0(i64 8, ptr %3) #8
  ret i32 %25
}