; Function Attrs: nounwind uwtable
define internal i32 @f_setvbuf(ptr noundef %0) #0 {
  %2 = tail call ptr @luaL_checkudata(ptr noundef %0, i32 noundef 1, ptr noundef nonnull @.str.16) #9
  %3 = getelementptr inbounds nuw i8, ptr %2, i64 8
  %4 = load ptr, ptr %3, align 8, !tbaa !9
  %5 = icmp eq ptr %4, null
  br i1 %5, label %6, label %tofile.exit, !prof !12

6:                                                ; preds = %1
  %7 = tail call i32 (ptr, ptr, ...) @luaL_error(ptr noundef %0, ptr noundef nonnull @.str.17) #9
  br label %tofile.exit

tofile.exit:                                      ; preds = %1, %6
  %8 = load ptr, ptr %2, align 8, !tbaa !11
  %9 = tail call i32 @luaL_checkoption(ptr noundef %0, i32 noundef 2, ptr noundef null, ptr noundef nonnull @f_setvbuf.modenames) #9
  %10 = tail call i64 @luaL_optinteger(ptr noundef %0, i32 noundef 3, i64 noundef 1024) #9
  %11 = tail call ptr @__errno_location() #10
  store i32 0, ptr %11, align 4, !tbaa !14
  %12 = sext i32 %9 to i64
  %13 = getelementptr inbounds [3 x i32], ptr @f_setvbuf.mode, i64 0, i64 %12
  %14 = load i32, ptr %13, align 4, !tbaa !14
  %15 = tail call i32 @setvbuf(ptr noundef %8, ptr noundef null, i32 noundef %14, i64 noundef %10) #9
  %16 = icmp eq i32 %15, 0
  %17 = zext i1 %16 to i32
  %18 = tail call i32 @luaL_fileresult(ptr noundef %0, i32 noundef %17, ptr noundef null) #9
  ret i32 %18
}